target datalayout = "e-m:e-p270:32:32-p271:32:32-p272:64:64-i64:64-i128:128-f80:128-n8:16:32:64-S128"
target triple = "x86_64-pc-linux-gnu"

@scan8 = internal constant [51 x i8] c"\0C\0D\14\15\0E\0F\16\17\1C\1D$%\1E\1F&'45<=67>?DELMFGNO\\]de^_fglmtunovw\00(P", align 16

; Function Attrs: alwaysinline nounwind willreturn memory(none) uwtable
define internal i32 @av_clip_uintp2_c(i32 noundef %0, i32 noundef %1) #2 {
  %3 = alloca i32, align 4
  %4 = alloca i32, align 4
  %5 = alloca i32, align 4
  store i32 %0, ptr %4, align 4, !tbaa !11
  store i32 %1, ptr %5, align 4, !tbaa !11
  %6 = load i32, ptr %4, align 4, !tbaa !11
  %7 = load i32, ptr %5, align 4, !tbaa !11
  %8 = shl i32 1, %7
  %9 = sub i32 %8, 1
  %10 = xor i32 %9, -1
  %11 = and i32 %6, %10
  %12 = icmp ne i32 %11, 0
  br i1 %12, label %13, label %21

13:                                               ; preds = %2
  %14 = load i32, ptr %4, align 4, !tbaa !11
  %15 = xor i32 %14, -1
  %16 = ashr i32 %15, 31
  %17 = load i32, ptr %5, align 4, !tbaa !11
  %18 = shl i32 1, %17
  %19 = sub i32 %18, 1
  %20 = and i32 %16, %19
  store i32 %20, ptr %3, align 4
  br label %23

21:                                               ; preds = %2
  %22 = load i32, ptr %4, align 4, !tbaa !11
  store i32 %22, ptr %3, align 4
  br label %23

23:                                               ; preds = %21, %13
  %24 = load i32, ptr %3, align 4
  ret i32 %24
}

; Function Attrs: nounwind uwtable
define void @ff_h264_idct_dc_add_12_c(ptr noundef %0, ptr noundef %1, i32 noundef %2) #0 {
  %4 = alloca ptr, align 8
  %5 = alloca ptr, align 8
  %6 = alloca i32, align 4
  %7 = alloca i32, align 4
  %8 = alloca i32, align 4
  %9 = alloca ptr, align 8
  %10 = alloca ptr, align 8
  %11 = alloca i32, align 4
  store ptr %0, ptr %4, align 8, !tbaa !4
  store ptr %1, ptr %5, align 8, !tbaa !9
  store i32 %2, ptr %6, align 4, !tbaa !11
  call void @llvm.lifetime.start.p0(i64 4, ptr %7) #4
  call void @llvm.lifetime.start.p0(i64 4, ptr %8) #4
  call void @llvm.lifetime.start.p0(i64 8, ptr %9) #4
  %12 = load ptr, ptr %4, align 8, !tbaa !4
  store ptr %12, ptr %9, align 8, !tbaa !9
  call void @llvm.lifetime.start.p0(i64 8, ptr %10) #4
  %13 = load ptr, ptr %5, align 8, !tbaa !9
  store ptr %13, ptr %10, align 8, !tbaa !25
  call void @llvm.lifetime.start.p0(i64 4, ptr %11) #4
  %14 = load ptr, ptr %10, align 8, !tbaa !25
  %15 = getelementptr inbounds i32, ptr %14, i64 0
  %16 = load i32, ptr %15, align 4, !tbaa !11
  %17 = add nsw i32 %16, 32
  %18 = ashr i32 %17, 6
  store i32 %18, ptr %11, align 4, !tbaa !11
  %19 = load i32, ptr %6, align 4, !tbaa !11
  %20 = sext i32 %19 to i64
  %21 = udiv i64 %20, 2
  %22 = trunc i64 %21 to i32
  store i32 %22, ptr %6, align 4, !tbaa !11
  %23 = load ptr, ptr %10, align 8, !tbaa !25
  %24 = getelementptr inbounds i32, ptr %23, i64 0
  store i32 0, ptr %24, align 4, !tbaa !11
  store i32 0, ptr %8, align 4, !tbaa !11
  br label %25

25:                                               ; preds = %55, %3
  %26 = load i32, ptr %8, align 4, !tbaa !11
  %27 = icmp slt i32 %26, 4
  br i1 %27, label %28, label %58

28:                                               ; preds = %25
  store i32 0, ptr %7, align 4, !tbaa !11
  br label %29

29:                                               ; preds = %47, %28
  %30 = load i32, ptr %7, align 4, !tbaa !11
  %31 = icmp slt i32 %30, 4
  br i1 %31, label %32, label %50

32:                                               ; preds = %29
  %33 = load ptr, ptr %9, align 8, !tbaa !9
  %34 = load i32, ptr %7, align 4, !tbaa !11
  %35 = sext i32 %34 to i64
  %36 = getelementptr inbounds i16, ptr %33, i64 %35
  %37 = load i16, ptr %36, align 2, !tbaa !13
  %38 = zext i16 %37 to i32
  %39 = load i32, ptr %11, align 4, !tbaa !11
  %40 = add nsw i32 %38, %39
  %41 = call i32 @av_clip_uintp2_c(i32 noundef %40, i32 noundef 12) #5
  %42 = trunc i32 %41 to i16
  %43 = load ptr, ptr %9, align 8, !tbaa !9
  %44 = load i32, ptr %7, align 4, !tbaa !11
  %45 = sext i32 %44 to i64
  %46 = getelementptr inbounds i16, ptr %43, i64 %45
  store i16 %42, ptr %46, align 2, !tbaa !13
  br label %47

47:                                               ; preds = %32
  %48 = load i32, ptr %7, align 4, !tbaa !11
  %49 = add nsw i32 %48, 1
  store i32 %49, ptr %7, align 4, !tbaa !11
  br label %29, !llvm.loop !89

50:                                               ; preds = %29
  %51 = load i32, ptr %6, align 4, !tbaa !11
  %52 = load ptr, ptr %9, align 8, !tbaa !9
  %53 = sext i32 %51 to i64
  %54 = getelementptr inbounds i16, ptr %52, i64 %53
  store ptr %54, ptr %9, align 8, !tbaa !9
  br label %55

55:                                               ; preds = %50
  %56 = load i32, ptr %8, align 4, !tbaa !11
  %57 = add nsw i32 %56, 1
  store i32 %57, ptr %8, align 4, !tbaa !11
  br label %25, !llvm.loop !90

58:                                               ; preds = %25
  call void @llvm.lifetime.end.p0(i64 4, ptr %11) #4
  call void @llvm.lifetime.end.p0(i64 8, ptr %10) #4
  call void @llvm.lifetime.end.p0(i64 8, ptr %9) #4
  call void @llvm.lifetime.end.p0(i64 4, ptr %8) #4
  call void @llvm.lifetime.end.p0(i64 4, ptr %7) #4
  ret void
}

; Function Attrs: nounwind uwtable
define void @ff_h264_idct_add16intra_12_c(ptr noundef %0, ptr noundef %1, ptr noundef %2, i32 noundef %3, ptr noundef %4) #0 {
  %6 = alloca ptr, align 8
  %7 = alloca ptr, align 8
  %8 = alloca ptr, align 8
  %9 = alloca i32, align 4
  %10 = alloca ptr, align 8
  %11 = alloca i32, align 4
  store ptr %0, ptr %6, align 8, !tbaa !4
  store ptr %1, ptr %7, align 8, !tbaa !25
  store ptr %2, ptr %8, align 8, !tbaa !9
  store i32 %3, ptr %9, align 4, !tbaa !11
  store ptr %4, ptr %10, align 8, !tbaa !4
  call void @llvm.lifetime.start.p0(i64 4, ptr %11) #4
  store i32 0, ptr %11, align 4, !tbaa !11
  br label %12

12:                                               ; preds = %67, %5
  %13 = load i32, ptr %11, align 4, !tbaa !11
  %14 = icmp slt i32 %13, 16
  br i1 %14, label %15, label %70

15:                                               ; preds = %12
  %16 = load ptr, ptr %10, align 8, !tbaa !4
  %17 = load i32, ptr %11, align 4, !tbaa !11
  %18 = sext i32 %17 to i64
  %19 = getelementptr inbounds [51 x i8], ptr @scan8, i64 0, i64 %18
  %20 = load i8, ptr %19, align 1, !tbaa !17
  %21 = zext i8 %20 to i64
  %22 = getelementptr inbounds nuw i8, ptr %16, i64 %21
  %23 = load i8, ptr %22, align 1, !tbaa !17
  %24 = icmp ne i8 %23, 0
  br i1 %24, label %25, label %41

25:                                               ; preds = %15
  %26 = load ptr, ptr %6, align 8, !tbaa !4
  %27 = load ptr, ptr %7, align 8, !tbaa !25
  %28 = load i32, ptr %11, align 4, !tbaa !11
  %29 = sext i32 %28 to i64
  %30 = getelementptr inbounds i32, ptr %27, i64 %29
  %31 = load i32, ptr %30, align 4, !tbaa !11
  %32 = sext i32 %31 to i64
  %33 = getelementptr inbounds i8, ptr %26, i64 %32
  %34 = load ptr, ptr %8, align 8, !tbaa !9
  %35 = load i32, ptr %11, align 4, !tbaa !11
  %36 = mul nsw i32 %35, 16
  %37 = sext i32 %36 to i64
  %38 = mul i64 %37, 2
  %39 = getelementptr inbounds nuw i16, ptr %34, i64 %38
  %40 = load i32, ptr %9, align 4, !tbaa !11
  call void @ff_h264_idct_add_12_c(ptr noundef %33, ptr noundef %39, i32 noundef %40)
  br label %66

41:                                               ; preds = %15
  %42 = load ptr, ptr %8, align 8, !tbaa !9
  %43 = load i32, ptr %11, align 4, !tbaa !11
  %44 = mul nsw i32 %43, 16
  %45 = sext i32 %44 to i64
  %46 = getelementptr inbounds i32, ptr %42, i64 %45
  %47 = load i32, ptr %46, align 4, !tbaa !11
  %48 = icmp ne i32 %47, 0
  br i1 %48, label %49, label %65

49:                                               ; preds = %41
  %50 = load ptr, ptr %6, align 8, !tbaa !4
  %51 = load ptr, ptr %7, align 8, !tbaa !25
  %52 = load i32, ptr %11, align 4, !tbaa !11
  %53 = sext i32 %52 to i64
  %54 = getelementptr inbounds i32, ptr %51, i64 %53
  %55 = load i32, ptr %54, align 4, !tbaa !11
  %56 = sext i32 %55 to i64
  %57 = getelementptr inbounds i8, ptr %50, i64 %56
  %58 = load ptr, ptr %8, align 8, !tbaa !9
  %59 = load i32, ptr %11, align 4, !tbaa !11
  %60 = mul nsw i32 %59, 16
  %61 = sext i32 %60 to i64
  %62 = mul i64 %61, 2
  %63 = getelementptr inbounds nuw i16, ptr %58, i64 %62
  %64 = load i32, ptr %9, align 4, !tbaa !11
  call void @ff_h264_idct_dc_add_12_c(ptr noundef %57, ptr noundef %63, i32 noundef %64)
  br label %65

65:                                               ; preds = %49, %41
  br label %66

66:                                               ; preds = %65, %25
  br label %67

67:                                               ; preds = %66
  %68 = load i32, ptr %11, align 4, !tbaa !11
  %69 = add nsw i32 %68, 1
  store i32 %69, ptr %11, align 4, !tbaa !11
  br label %12, !llvm.loop !94

70:                                               ; preds = %12
  call void @llvm.lifetime.end.p0(i64 4, ptr %11) #4
  ret void
}